; ModuleID = '15/746.c'
source_filename = "15/746.c"
target datalayout = "e-m:e-p270:32:32-p271:32:32-p272:64:64-i64:64-f80:128-n8:16:32:64-S128"
target triple = "x86_64-pc-linux-gnu"

@.str = private unnamed_addr constant [3 x i8] c"%d\00", align 1
@.str.1 = private unnamed_addr constant [4 x i8] c"%d\0A\00", align 1

; Function Attrs: noinline nounwind uwtable
define dso_local i32 @main() #0 {
  %1 = alloca i32, align 4
  %2 = alloca i32, align 4
  %3 = alloca [100 x [100 x i32]], align 16
  %4 = alloca i32, align 4
  %5 = alloca i32, align 4
  %6 = alloca i32, align 4
  %7 = alloca i32, align 4
  %8 = alloca i32, align 4
  %9 = alloca i32, align 4
  %10 = alloca i32, align 4
  %11 = alloca i32, align 4
  store i32 0, i32* %1, align 4
  %12 = call i32 (i8*, ...) @__isoc99_scanf(i8* getelementptr inbounds ([3 x i8], [3 x i8]* @.str, i64 0, i64 0), i32* %2)
  store i32 0, i32* %4, align 4
  br label %13

13:                                               ; preds = %34, %0
  %14 = load i32, i32* %4, align 4
  %15 = load i32, i32* %2, align 4
  %16 = icmp slt i32 %14, %15
  br i1 %16, label %17, label %37

17:                                               ; preds = %13
  store i32 0, i32* %5, align 4
  br label %18

18:                                               ; preds = %30, %17
  %19 = load i32, i32* %5, align 4
  %20 = load i32, i32* %2, align 4
  %21 = icmp slt i32 %19, %20
  br i1 %21, label %22, label %33

22:                                               ; preds = %18
  %23 = load i32, i32* %4, align 4
  %24 = sext i32 %23 to i64
  %25 = getelementptr inbounds [100 x [100 x i32]], [100 x [100 x i32]]* %3, i64 0, i64 %24
  %26 = load i32, i32* %5, align 4
  %27 = sext i32 %26 to i64
  %28 = getelementptr inbounds [100 x i32], [100 x i32]* %25, i64 0, i64 %27
  %29 = call i32 (i8*, ...) @__isoc99_scanf(i8* getelementptr inbounds ([3 x i8], [3 x i8]* @.str, i64 0, i64 0), i32* %28)
  br label %30

30:                                               ; preds = %22
  %31 = load i32, i32* %5, align 4
  %32 = add nsw i32 %31, 1
  store i32 %32, i32* %5, align 4
  br label %18

33:                                               ; preds = %18
  br label %34

34:                                               ; preds = %33
  %35 = load i32, i32* %4, align 4
  %36 = add nsw i32 %35, 1
  store i32 %36, i32* %4, align 4
  br label %13

37:                                               ; preds = %13
  store i32 0, i32* %11, align 4
  store i32 0, i32* %4, align 4
  br label %38

38:                                               ; preds = %76, %37
  %39 = load i32, i32* %4, align 4
  %40 = load i32, i32* %2, align 4
  %41 = icmp slt i32 %39, %40
  br i1 %41, label %42, label %46

42:                                               ; preds = %38
  %43 = load i32, i32* %11, align 4
  %44 = icmp ne i32 %43, 0
  %45 = xor i1 %44, true
  br label %46

46:                                               ; preds = %42, %38
  %47 = phi i1 [ false, %38 ], [ %45, %42 ]
  br i1 %47, label %48, label %79

48:                                               ; preds = %46
  store i32 0, i32* %5, align 4
  br label %49

49:                                               ; preds = %72, %48
  %50 = load i32, i32* %5, align 4
  %51 = load i32, i32* %2, align 4
  %52 = icmp slt i32 %50, %51
  br i1 %52, label %53, label %57

53:                                               ; preds = %49
  %54 = load i32, i32* %11, align 4
  %55 = icmp ne i32 %54, 0
  %56 = xor i1 %55, true
  br label %57

57:                                               ; preds = %53, %49
  %58 = phi i1 [ false, %49 ], [ %56, %53 ]
  br i1 %58, label %59, label %75

59:                                               ; preds = %57
  %60 = load i32, i32* %4, align 4
  %61 = sext i32 %60 to i64
  %62 = getelementptr inbounds [100 x [100 x i32]], [100 x [100 x i32]]* %3, i64 0, i64 %61
  %63 = load i32, i32* %5, align 4
  %64 = sext i32 %63 to i64
  %65 = getelementptr inbounds [100 x i32], [100 x i32]* %62, i64 0, i64 %64
  %66 = load i32, i32* %65, align 4
  %67 = icmp eq i32 %66, 0
  br i1 %67, label %68, label %71

68:                                               ; preds = %59
  %69 = load i32, i32* %4, align 4
  store i32 %69, i32* %6, align 4
  %70 = load i32, i32* %5, align 4
  store i32 %70, i32* %7, align 4
  store i32 1, i32* %11, align 4
  br label %75

71:                                               ; preds = %59
  br label %72

72:                                               ; preds = %71
  %73 = load i32, i32* %5, align 4
  %74 = add nsw i32 %73, 1
  store i32 %74, i32* %5, align 4
  br label %49

75:                                               ; preds = %68, %57
  br label %76

76:                                               ; preds = %75
  %77 = load i32, i32* %4, align 4
  %78 = add nsw i32 %77, 1
  store i32 %78, i32* %4, align 4
  br label %38

79:                                               ; preds = %46
  store i32 0, i32* %11, align 4
  %80 = load i32, i32* %2, align 4
  %81 = sub nsw i32 %80, 1
  store i32 %81, i32* %4, align 4
  br label %82

82:                                               ; preds = %114, %79
  %83 = load i32, i32* %4, align 4
  %84 = icmp sge i32 %83, 0
  br i1 %84, label %85, label %89

85:                                               ; preds = %82
  %86 = load i32, i32* %11, align 4
  %87 = icmp ne i32 %86, 0
  %88 = xor i1 %87, true
  br label %89

89:                                               ; preds = %85, %82
  %90 = phi i1 [ false, %82 ], [ %88, %85 ]
  br i1 %90, label %91, label %117

91:                                               ; preds = %89
  %92 = load i32, i32* %2, align 4
  %93 = sub nsw i32 %92, 1
  store i32 %93, i32* %5, align 4
  br label %94

94:                                               ; preds = %110, %91
  %95 = load i32, i32* %5, align 4
  %96 = icmp sge i32 %95, 0
  br i1 %96, label %97, label %113

97:                                               ; preds = %94
  %98 = load i32, i32* %4, align 4
  %99 = sext i32 %98 to i64
  %100 = getelementptr inbounds [100 x [100 x i32]], [100 x [100 x i32]]* %3, i64 0, i64 %99
  %101 = load i32, i32* %5, align 4
  %102 = sext i32 %101 to i64
  %103 = getelementptr inbounds [100 x i32], [100 x i32]* %100, i64 0, i64 %102
  %104 = load i32, i32* %103, align 4
  %105 = icmp eq i32 %104, 0
  br i1 %105, label %106, label %109

106:                                              ; preds = %97
  %107 = load i32, i32* %4, align 4
  store i32 %107, i32* %8, align 4
  %108 = load i32, i32* %5, align 4
  store i32 %108, i32* %9, align 4
  store i32 1, i32* %11, align 4
  br label %113

109:                                              ; preds = %97
  br label %110

110:                                              ; preds = %109
  %111 = load i32, i32* %5, align 4
  %112 = add nsw i32 %111, -1
  store i32 %112, i32* %5, align 4
  br label %94

113:                                              ; preds = %106, %94
  br label %114

114:                                              ; preds = %113
  %115 = load i32, i32* %4, align 4
  %116 = add nsw i32 %115, -1
  store i32 %116, i32* %4, align 4
  br label %82

117:                                              ; preds = %89
  %118 = load i32, i32* %8, align 4
  %119 = load i32, i32* %6, align 4
  %120 = sub nsw i32 %118, %119
  %121 = sub nsw i32 %120, 1
  %122 = load i32, i32* %9, align 4
  %123 = load i32, i32* %7, align 4
  %124 = sub nsw i32 %122, %123
  %125 = sub nsw i32 %124, 1
  %126 = mul nsw i32 %121, %125
  store i32 %126, i32* %10, align 4
  %127 = load i32, i32* %10, align 4
  %128 = call i32 (i8*, ...) @printf(i8* getelementptr inbounds ([4 x i8], [4 x i8]* @.str.1, i64 0, i64 0), i32 %127)
  ret i32 0
}

declare dso_local i32 @__isoc99_scanf(i8*, ...) #1

declare dso_local i32 @printf(i8*, ...) #1


!llvm.module.flags = !{!0}
!llvm.ident = !{!1}

!0 = !{i32 1, !"wchar_size", i32 4}
!1 = !{!"clang version 10.0.0-4ubuntu1 "}
